target datalayout = "e-m:e-p270:32:32-p271:32:32-p272:64:64-i64:64-i128:128-f80:128-n8:16:32:64-S128"
target triple = "x86_64-pc-linux-gnu"

%struct.lua_State = type { ptr, i8, i8, i8, i8, i16, %union.StkIdRel, ptr, ptr, %union.StkIdRel, %union.StkIdRel, ptr, %union.StkIdRel, ptr, ptr, ptr, %struct.CallInfo, ptr, i64, i32, i32, i32, i32, i32, %struct.anon.3 }
%union.StkIdRel = type { ptr }
%struct.CallInfo = type { %union.StkIdRel, %union.StkIdRel, ptr, ptr, %union.anon, %union.anon.2, i32 }
%union.anon = type { %struct.anon.1 }
%struct.anon.1 = type { ptr, i64, i64 }
%union.anon.2 = type { i32 }
%struct.anon.3 = type { i32, i32 }
%struct.TValue = type { %union.Value, i8 }
%union.Value = type { ptr }
%union.StackValue = type { %struct.TValue }
%struct.anon.0 = type { ptr, i32, i32 }
%struct.lua_Debug = type { i32, ptr, ptr, ptr, ptr, i64, i32, i32, i32, i8, i8, i8, i8, i8, i32, i32, [60 x i8], ptr }
%struct.LClosure = type { ptr, i8, i8, i8, ptr, ptr, [1 x ptr] }
%struct.Proto = type { ptr, i8, i8, i8, i8, i8, i32, i32, i32, i32, i32, i32, i32, i32, i32, ptr, ptr, ptr, ptr, ptr, ptr, ptr, ptr, ptr }

; Function Attrs: nounwind uwtable
define hidden void @luaD_hook(ptr noundef %0, i32 noundef %1, i32 noundef %2, i32 noundef %3, i32 noundef %4) #0 {
  %6 = alloca ptr, align 8
  %7 = alloca i32, align 4
  %8 = alloca i32, align 4
  %9 = alloca i32, align 4
  %10 = alloca i32, align 4
  %11 = alloca ptr, align 8
  %12 = alloca ptr, align 8
  %13 = alloca i64, align 8
  %14 = alloca i64, align 8
  %15 = alloca %struct.lua_Debug, align 8
  store ptr %0, ptr %6, align 8, !tbaa !4
  store i32 %1, ptr %7, align 4, !tbaa !9
  store i32 %2, ptr %8, align 4, !tbaa !9
  store i32 %3, ptr %9, align 4, !tbaa !9
  store i32 %4, ptr %10, align 4, !tbaa !9
  call void @llvm.lifetime.start.p0(i64 8, ptr %11) #11
  %16 = load ptr, ptr %6, align 8, !tbaa !4
  %17 = getelementptr inbounds nuw %struct.lua_State, ptr %16, i32 0, i32 17
  %18 = load volatile ptr, ptr %17, align 8, !tbaa !57
  store ptr %18, ptr %11, align 8, !tbaa !47
  %19 = load ptr, ptr %11, align 8, !tbaa !47
  %20 = icmp ne ptr %19, null
  br i1 %20, label %21, label %149

21:                                               ; preds = %5
  %22 = load ptr, ptr %6, align 8, !tbaa !4
  %23 = getelementptr inbounds nuw %struct.lua_State, ptr %22, i32 0, i32 4
  %24 = load i8, ptr %23, align 1, !tbaa !58
  %25 = zext i8 %24 to i32
  %26 = icmp ne i32 %25, 0
  br i1 %26, label %27, label %149

27:                                               ; preds = %21
  call void @llvm.lifetime.start.p0(i64 8, ptr %12) #11
  %28 = load ptr, ptr %6, align 8, !tbaa !4
  %29 = getelementptr inbounds nuw %struct.lua_State, ptr %28, i32 0, i32 8
  %30 = load ptr, ptr %29, align 8, !tbaa !53
  store ptr %30, ptr %12, align 8, !tbaa !54
  call void @llvm.lifetime.start.p0(i64 8, ptr %13) #11
  %31 = load ptr, ptr %6, align 8, !tbaa !4
  %32 = getelementptr inbounds nuw %struct.lua_State, ptr %31, i32 0, i32 6
  %33 = load ptr, ptr %32, align 8, !tbaa !34
  %34 = load ptr, ptr %6, align 8, !tbaa !4
  %35 = getelementptr inbounds nuw %struct.lua_State, ptr %34, i32 0, i32 10
  %36 = load ptr, ptr %35, align 8, !tbaa !34
  %37 = ptrtoint ptr %33 to i64
  %38 = ptrtoint ptr %36 to i64
  %39 = sub i64 %37, %38
  store i64 %39, ptr %13, align 8, !tbaa !59
  call void @llvm.lifetime.start.p0(i64 8, ptr %14) #11
  %40 = load ptr, ptr %12, align 8, !tbaa !54
  %41 = getelementptr inbounds nuw %struct.CallInfo, ptr %40, i32 0, i32 1
  %42 = load ptr, ptr %41, align 8, !tbaa !34
  %43 = load ptr, ptr %6, align 8, !tbaa !4
  %44 = getelementptr inbounds nuw %struct.lua_State, ptr %43, i32 0, i32 10
  %45 = load ptr, ptr %44, align 8, !tbaa !34
  %46 = ptrtoint ptr %42 to i64
  %47 = ptrtoint ptr %45 to i64
  %48 = sub i64 %46, %47
  store i64 %48, ptr %14, align 8, !tbaa !59
  call void @llvm.lifetime.start.p0(i64 144, ptr %15) #11
  %49 = load i32, ptr %7, align 4, !tbaa !9
  %50 = getelementptr inbounds nuw %struct.lua_Debug, ptr %15, i32 0, i32 0
  store i32 %49, ptr %50, align 8, !tbaa !60
  %51 = load i32, ptr %8, align 4, !tbaa !9
  %52 = getelementptr inbounds nuw %struct.lua_Debug, ptr %15, i32 0, i32 6
  store i32 %51, ptr %52, align 8, !tbaa !62
  %53 = load ptr, ptr %12, align 8, !tbaa !54
  %54 = getelementptr inbounds nuw %struct.lua_Debug, ptr %15, i32 0, i32 17
  store ptr %53, ptr %54, align 8, !tbaa !63
  %55 = load i32, ptr %9, align 4, !tbaa !9
  %56 = load ptr, ptr %6, align 8, !tbaa !4
  %57 = getelementptr inbounds nuw %struct.lua_State, ptr %56, i32 0, i32 24
  %58 = getelementptr inbounds nuw %struct.anon.3, ptr %57, i32 0, i32 0
  store i32 %55, ptr %58, align 4, !tbaa !64
  %59 = load i32, ptr %10, align 4, !tbaa !9
  %60 = load ptr, ptr %6, align 8, !tbaa !4
  %61 = getelementptr inbounds nuw %struct.lua_State, ptr %60, i32 0, i32 24
  %62 = getelementptr inbounds nuw %struct.anon.3, ptr %61, i32 0, i32 1
  store i32 %59, ptr %62, align 4, !tbaa !65
  %63 = load ptr, ptr %12, align 8, !tbaa !54
  %64 = getelementptr inbounds nuw %struct.CallInfo, ptr %63, i32 0, i32 6
  %65 = load i32, ptr %64, align 4, !tbaa !56
  %66 = and i32 %65, 32768
  %67 = icmp ne i32 %66, 0
  br i1 %67, label %82, label %68

68:                                               ; preds = %27
  %69 = load ptr, ptr %6, align 8, !tbaa !4
  %70 = getelementptr inbounds nuw %struct.lua_State, ptr %69, i32 0, i32 6
  %71 = load ptr, ptr %70, align 8, !tbaa !34
  %72 = load ptr, ptr %12, align 8, !tbaa !54
  %73 = getelementptr inbounds nuw %struct.CallInfo, ptr %72, i32 0, i32 1
  %74 = load ptr, ptr %73, align 8, !tbaa !34
  %75 = icmp ult ptr %71, %74
  br i1 %75, label %76, label %82

76:                                               ; preds = %68
  %77 = load ptr, ptr %12, align 8, !tbaa !54
  %78 = getelementptr inbounds nuw %struct.CallInfo, ptr %77, i32 0, i32 1
  %79 = load ptr, ptr %78, align 8, !tbaa !34
  %80 = load ptr, ptr %6, align 8, !tbaa !4
  %81 = getelementptr inbounds nuw %struct.lua_State, ptr %80, i32 0, i32 6
  store ptr %79, ptr %81, align 8, !tbaa !34
  br label %82

82:                                               ; preds = %76, %68, %27
  %83 = load ptr, ptr %6, align 8, !tbaa !4
  %84 = getelementptr inbounds nuw %struct.lua_State, ptr %83, i32 0, i32 9
  %85 = load ptr, ptr %84, align 8, !tbaa !34
  %86 = load ptr, ptr %6, align 8, !tbaa !4
  %87 = getelementptr inbounds nuw %struct.lua_State, ptr %86, i32 0, i32 6
  %88 = load ptr, ptr %87, align 8, !tbaa !34
  %89 = ptrtoint ptr %85 to i64
  %90 = ptrtoint ptr %88 to i64
  %91 = sub i64 %89, %90
  %92 = sdiv exact i64 %91, 16
  %93 = icmp sle i64 %92, 20
  %94 = zext i1 %93 to i32
  %95 = icmp ne i32 %94, 0
  %96 = zext i1 %95 to i32
  %97 = sext i32 %96 to i64
  %98 = call i64 @llvm.expect.i64(i64 %97, i64 0)
  %99 = icmp ne i64 %98, 0
  br i1 %99, label %100, label %103

100:                                              ; preds = %82
  %101 = load ptr, ptr %6, align 8, !tbaa !4
  %102 = call i32 @luaD_growstack(ptr noundef %101, i32 noundef 20, i32 noundef 1)
  br label %104

103:                                              ; preds = %82
  br label %104

104:                                              ; preds = %103, %100
  %105 = load ptr, ptr %12, align 8, !tbaa !54
  %106 = getelementptr inbounds nuw %struct.CallInfo, ptr %105, i32 0, i32 1
  %107 = load ptr, ptr %106, align 8, !tbaa !34
  %108 = load ptr, ptr %6, align 8, !tbaa !4
  %109 = getelementptr inbounds nuw %struct.lua_State, ptr %108, i32 0, i32 6
  %110 = load ptr, ptr %109, align 8, !tbaa !34
  %111 = getelementptr inbounds %union.StackValue, ptr %110, i64 20
  %112 = icmp ult ptr %107, %111
  br i1 %112, label %113, label %120

113:                                              ; preds = %104
  %114 = load ptr, ptr %6, align 8, !tbaa !4
  %115 = getelementptr inbounds nuw %struct.lua_State, ptr %114, i32 0, i32 6
  %116 = load ptr, ptr %115, align 8, !tbaa !34
  %117 = getelementptr inbounds %union.StackValue, ptr %116, i64 20
  %118 = load ptr, ptr %12, align 8, !tbaa !54
  %119 = getelementptr inbounds nuw %struct.CallInfo, ptr %118, i32 0, i32 1
  store ptr %117, ptr %119, align 8, !tbaa !34
  br label %120

120:                                              ; preds = %113, %104
  %121 = load ptr, ptr %6, align 8, !tbaa !4
  %122 = getelementptr inbounds nuw %struct.lua_State, ptr %121, i32 0, i32 4
  store i8 0, ptr %122, align 1, !tbaa !58
  %123 = load ptr, ptr %12, align 8, !tbaa !54
  %124 = getelementptr inbounds nuw %struct.CallInfo, ptr %123, i32 0, i32 6
  %125 = load i32, ptr %124, align 4, !tbaa !56
  %126 = or i32 %125, 1048576
  store i32 %126, ptr %124, align 4, !tbaa !56
  %127 = load ptr, ptr %11, align 8, !tbaa !47
  %128 = load ptr, ptr %6, align 8, !tbaa !4
  call void %127(ptr noundef %128, ptr noundef %15)
  %129 = load ptr, ptr %6, align 8, !tbaa !4
  %130 = getelementptr inbounds nuw %struct.lua_State, ptr %129, i32 0, i32 4
  store i8 1, ptr %130, align 1, !tbaa !58
  %131 = load ptr, ptr %6, align 8, !tbaa !4
  %132 = getelementptr inbounds nuw %struct.lua_State, ptr %131, i32 0, i32 10
  %133 = load ptr, ptr %132, align 8, !tbaa !34
  %134 = load i64, ptr %14, align 8, !tbaa !59
  %135 = getelementptr inbounds i8, ptr %133, i64 %134
  %136 = load ptr, ptr %12, align 8, !tbaa !54
  %137 = getelementptr inbounds nuw %struct.CallInfo, ptr %136, i32 0, i32 1
  store ptr %135, ptr %137, align 8, !tbaa !34
  %138 = load ptr, ptr %6, align 8, !tbaa !4
  %139 = getelementptr inbounds nuw %struct.lua_State, ptr %138, i32 0, i32 10
  %140 = load ptr, ptr %139, align 8, !tbaa !34
  %141 = load i64, ptr %13, align 8, !tbaa !59
  %142 = getelementptr inbounds i8, ptr %140, i64 %141
  %143 = load ptr, ptr %6, align 8, !tbaa !4
  %144 = getelementptr inbounds nuw %struct.lua_State, ptr %143, i32 0, i32 6
  store ptr %142, ptr %144, align 8, !tbaa !34
  %145 = load ptr, ptr %12, align 8, !tbaa !54
  %146 = getelementptr inbounds nuw %struct.CallInfo, ptr %145, i32 0, i32 6
  %147 = load i32, ptr %146, align 4, !tbaa !56
  %148 = and i32 %147, -1048577
  store i32 %148, ptr %146, align 4, !tbaa !56
  call void @llvm.lifetime.end.p0(i64 144, ptr %15) #11
  call void @llvm.lifetime.end.p0(i64 8, ptr %14) #11
  call void @llvm.lifetime.end.p0(i64 8, ptr %13) #11
  call void @llvm.lifetime.end.p0(i64 8, ptr %12) #11
  br label %149

149:                                              ; preds = %120, %21, %5
  call void @llvm.lifetime.end.p0(i64 8, ptr %11) #11
  ret void
}

; Function Attrs: nounwind uwtable
define internal void @rethook(ptr noundef %0, ptr noundef %1, i32 noundef %2) #0 {
  %4 = alloca ptr, align 8
  %5 = alloca ptr, align 8
  %6 = alloca i32, align 4
  %7 = alloca ptr, align 8
  %8 = alloca i32, align 4
  %9 = alloca i32, align 4
  %10 = alloca ptr, align 8
  store ptr %0, ptr %4, align 8, !tbaa !4
  store ptr %1, ptr %5, align 8, !tbaa !54
  store i32 %2, ptr %6, align 4, !tbaa !9
  %11 = load ptr, ptr %4, align 8, !tbaa !4
  %12 = getelementptr inbounds nuw %struct.lua_State, ptr %11, i32 0, i32 23
  %13 = load volatile i32, ptr %12, align 8, !tbaa !67
  %14 = and i32 %13, 2
  %15 = icmp ne i32 %14, 0
  br i1 %15, label %16, label %81

16:                                               ; preds = %3
  call void @llvm.lifetime.start.p0(i64 8, ptr %7) #11
  %17 = load ptr, ptr %4, align 8, !tbaa !4
  %18 = getelementptr inbounds nuw %struct.lua_State, ptr %17, i32 0, i32 6
  %19 = load ptr, ptr %18, align 8, !tbaa !34
  %20 = load i32, ptr %6, align 4, !tbaa !9
  %21 = sext i32 %20 to i64
  %22 = sub i64 0, %21
  %23 = getelementptr inbounds %union.StackValue, ptr %19, i64 %22
  store ptr %23, ptr %7, align 8, !tbaa !11
  call void @llvm.lifetime.start.p0(i64 4, ptr %8) #11
  store i32 0, ptr %8, align 4, !tbaa !9
  call void @llvm.lifetime.start.p0(i64 4, ptr %9) #11
  %24 = load ptr, ptr %5, align 8, !tbaa !54
  %25 = getelementptr inbounds nuw %struct.CallInfo, ptr %24, i32 0, i32 6
  %26 = load i32, ptr %25, align 4, !tbaa !56
  %27 = and i32 %26, 32768
  %28 = icmp ne i32 %27, 0
  br i1 %28, label %55, label %29

29:                                               ; preds = %16
  call void @llvm.lifetime.start.p0(i64 8, ptr %10) #11
  %30 = load ptr, ptr %5, align 8, !tbaa !54
  %31 = getelementptr inbounds nuw %struct.CallInfo, ptr %30, i32 0, i32 0
  %32 = load ptr, ptr %31, align 8, !tbaa !34
  %33 = getelementptr inbounds nuw %struct.TValue, ptr %32, i32 0, i32 0
  %34 = load ptr, ptr %33, align 8, !tbaa !34
  %35 = getelementptr inbounds nuw %struct.LClosure, ptr %34, i32 0, i32 5
  %36 = load ptr, ptr %35, align 8, !tbaa !68
  store ptr %36, ptr %10, align 8, !tbaa !71
  %37 = load ptr, ptr %10, align 8, !tbaa !71
  %38 = getelementptr inbounds nuw %struct.Proto, ptr %37, i32 0, i32 4
  %39 = load i8, ptr %38, align 1, !tbaa !79
  %40 = zext i8 %39 to i32
  %41 = and i32 %40, 1
  %42 = icmp ne i32 %41, 0
  br i1 %42, label %43, label %54

43:                                               ; preds = %29
  %44 = load ptr, ptr %5, align 8, !tbaa !54
  %45 = getelementptr inbounds nuw %struct.CallInfo, ptr %44, i32 0, i32 4
  %46 = getelementptr inbounds nuw %struct.anon.0, ptr %45, i32 0, i32 2
  %47 = load i32, ptr %46, align 4, !tbaa !34
  %48 = load ptr, ptr %10, align 8, !tbaa !71
  %49 = getelementptr inbounds nuw %struct.Proto, ptr %48, i32 0, i32 3
  %50 = load i8, ptr %49, align 2, !tbaa !72
  %51 = zext i8 %50 to i32
  %52 = add nsw i32 %47, %51
  %53 = add nsw i32 %52, 1
  store i32 %53, ptr %8, align 4, !tbaa !9
  br label %54

54:                                               ; preds = %43, %29
  call void @llvm.lifetime.end.p0(i64 8, ptr %10) #11
  br label %55

55:                                               ; preds = %54, %16
  %56 = load i32, ptr %8, align 4, !tbaa !9
  %57 = load ptr, ptr %5, align 8, !tbaa !54
  %58 = getelementptr inbounds nuw %struct.CallInfo, ptr %57, i32 0, i32 0
  %59 = load ptr, ptr %58, align 8, !tbaa !34
  %60 = sext i32 %56 to i64
  %61 = getelementptr inbounds %union.StackValue, ptr %59, i64 %60
  store ptr %61, ptr %58, align 8, !tbaa !34
  %62 = load ptr, ptr %7, align 8, !tbaa !11
  %63 = load ptr, ptr %5, align 8, !tbaa !54
  %64 = getelementptr inbounds nuw %struct.CallInfo, ptr %63, i32 0, i32 0
  %65 = load ptr, ptr %64, align 8, !tbaa !34
  %66 = ptrtoint ptr %62 to i64
  %67 = ptrtoint ptr %65 to i64
  %68 = sub i64 %66, %67
  %69 = sdiv exact i64 %68, 16
  %70 = trunc i64 %69 to i32
  store i32 %70, ptr %9, align 4, !tbaa !9
  %71 = load ptr, ptr %4, align 8, !tbaa !4
  %72 = load i32, ptr %9, align 4, !tbaa !9
  %73 = load i32, ptr %6, align 4, !tbaa !9
  call void @luaD_hook(ptr noundef %71, i32 noundef 1, i32 noundef -1, i32 noundef %72, i32 noundef %73)
  %74 = load i32, ptr %8, align 4, !tbaa !9
  %75 = load ptr, ptr %5, align 8, !tbaa !54
  %76 = getelementptr inbounds nuw %struct.CallInfo, ptr %75, i32 0, i32 0
  %77 = load ptr, ptr %76, align 8, !tbaa !34
  %78 = sext i32 %74 to i64
  %79 = sub i64 0, %78
  %80 = getelementptr inbounds %union.StackValue, ptr %77, i64 %79
  store ptr %80, ptr %76, align 8, !tbaa !34
  call void @llvm.lifetime.end.p0(i64 4, ptr %9) #11
  call void @llvm.lifetime.end.p0(i64 4, ptr %8) #11
  call void @llvm.lifetime.end.p0(i64 8, ptr %7) #11
  br label %81

81:                                               ; preds = %55, %3
  %82 = load ptr, ptr %5, align 8, !tbaa !54
  %83 = getelementptr inbounds nuw %struct.CallInfo, ptr %82, i32 0, i32 2
  %84 = load ptr, ptr %83, align 8, !tbaa !55
  store ptr %84, ptr %5, align 8, !tbaa !54
  %85 = getelementptr inbounds nuw %struct.CallInfo, ptr %84, i32 0, i32 6
  %86 = load i32, ptr %85, align 4, !tbaa !56
  %87 = and i32 %86, 32768
  %88 = icmp ne i32 %87, 0
  br i1 %88, label %111, label %89

89:                                               ; preds = %81
  %90 = load ptr, ptr %5, align 8, !tbaa !54
  %91 = getelementptr inbounds nuw %struct.CallInfo, ptr %90, i32 0, i32 4
  %92 = getelementptr inbounds nuw %struct.anon.0, ptr %91, i32 0, i32 0
  %93 = load ptr, ptr %92, align 8, !tbaa !34
  %94 = load ptr, ptr %5, align 8, !tbaa !54
  %95 = getelementptr inbounds nuw %struct.CallInfo, ptr %94, i32 0, i32 0
  %96 = load ptr, ptr %95, align 8, !tbaa !34
  %97 = getelementptr inbounds nuw %struct.TValue, ptr %96, i32 0, i32 0
  %98 = load ptr, ptr %97, align 8, !tbaa !34
  %99 = getelementptr inbounds nuw %struct.LClosure, ptr %98, i32 0, i32 5
  %100 = load ptr, ptr %99, align 8, !tbaa !68
  %101 = getelementptr inbounds nuw %struct.Proto, ptr %100, i32 0, i32 16
  %102 = load ptr, ptr %101, align 8, !tbaa !80
  %103 = ptrtoint ptr %93 to i64
  %104 = ptrtoint ptr %102 to i64
  %105 = sub i64 %103, %104
  %106 = sdiv exact i64 %105, 4
  %107 = trunc i64 %106 to i32
  %108 = sub nsw i32 %107, 1
  %109 = load ptr, ptr %4, align 8, !tbaa !4
  %110 = getelementptr inbounds nuw %struct.lua_State, ptr %109, i32 0, i32 20
  store i32 %108, ptr %110, align 4, !tbaa !66
  br label %111

111:                                              ; preds = %89, %81
  ret void
}