; Function Attrs: nounwind uwtable
define internal fastcc void @rethook(ptr noundef %0, ptr noundef captures(none) %1, i32 noundef %2) unnamed_addr #0 {
  %4 = alloca %struct.lua_Debug, align 8
  %5 = getelementptr inbounds nuw i8, ptr %0, i64 192
  %6 = load volatile i32, ptr %5, align 8, !tbaa !54
  %7 = and i32 %6, 2
  %.not = icmp eq i32 %7, 0
  br i1 %.not, label %96, label %8

8:                                                ; preds = %3
  %9 = getelementptr inbounds nuw i8, ptr %0, i64 16
  %10 = load ptr, ptr %9, align 8, !tbaa !27
  %11 = sext i32 %2 to i64
  %12 = sub nsw i64 0, %11
  %13 = getelementptr inbounds %union.StackValue, ptr %10, i64 %12
  %14 = getelementptr inbounds nuw i8, ptr %1, i64 60
  %15 = load i32, ptr %14, align 4, !tbaa !43
  %16 = and i32 %15, 32768
  %.not20 = icmp eq i32 %16, 0
  %.pre = load ptr, ptr %1, align 8, !tbaa !27
  br i1 %.not20, label %17, label %33

17:                                               ; preds = %8
  %18 = load ptr, ptr %.pre, align 8, !tbaa !27
  %19 = getelementptr inbounds nuw i8, ptr %18, i64 24
  %20 = load ptr, ptr %19, align 8, !tbaa !55
  %21 = getelementptr inbounds nuw i8, ptr %20, i64 11
  %22 = load i8, ptr %21, align 1, !tbaa !68
  %23 = and i8 %22, 1
  %.not21 = icmp eq i8 %23, 0
  br i1 %.not21, label %33, label %24

24:                                               ; preds = %17
  %25 = getelementptr inbounds nuw i8, ptr %1, i64 44
  %26 = load i32, ptr %25, align 4, !tbaa !27
  %27 = getelementptr inbounds nuw i8, ptr %20, i64 10
  %28 = load i8, ptr %27, align 2, !tbaa !58
  %29 = zext i8 %28 to i32
  %30 = add i32 %26, 1
  %31 = add i32 %30, %29
  %32 = sext i32 %31 to i64
  br label %33

33:                                               ; preds = %17, %24, %8
  %.0 = phi i64 [ 0, %8 ], [ %32, %24 ], [ 0, %17 ]
  %34 = getelementptr inbounds %union.StackValue, ptr %.pre, i64 %.0
  store ptr %34, ptr %1, align 8, !tbaa !27
  %35 = ptrtoint ptr %13 to i64
  %36 = ptrtoint ptr %34 to i64
  %37 = sub i64 %35, %36
  %38 = lshr exact i64 %37, 4
  %39 = trunc i64 %38 to i32
  %40 = getelementptr inbounds nuw i8, ptr %0, i64 160
  %41 = load volatile ptr, ptr %40, align 8, !tbaa !44
  %.not.i = icmp eq ptr %41, null
  br i1 %.not.i, label %luaD_hook.exit, label %42

42:                                               ; preds = %33
  %43 = getelementptr inbounds nuw i8, ptr %0, i64 11
  %44 = load i8, ptr %43, align 1, !tbaa !45
  %.not40.i = icmp eq i8 %44, 0
  br i1 %.not40.i, label %luaD_hook.exit, label %45

45:                                               ; preds = %42
  %46 = getelementptr inbounds nuw i8, ptr %0, i64 32
  %47 = load ptr, ptr %46, align 8, !tbaa !46
  %48 = load ptr, ptr %9, align 8, !tbaa !27
  %49 = getelementptr inbounds nuw i8, ptr %0, i64 48
  %50 = load ptr, ptr %49, align 8, !tbaa !27
  %51 = ptrtoint ptr %48 to i64
  %52 = ptrtoint ptr %50 to i64
  %53 = sub i64 %51, %52
  %54 = getelementptr inbounds nuw i8, ptr %47, i64 8
  %55 = load ptr, ptr %54, align 8, !tbaa !27
  %56 = ptrtoint ptr %55 to i64
  %57 = sub i64 %56, %52
  call void @llvm.lifetime.start.p0(i64 144, ptr nonnull %4) #13
  store i32 1, ptr %4, align 8, !tbaa !47
  %58 = getelementptr inbounds nuw i8, ptr %4, i64 48
  store i32 -1, ptr %58, align 8, !tbaa !49
  %59 = getelementptr inbounds nuw i8, ptr %4, i64 136
  store ptr %47, ptr %59, align 8, !tbaa !50
  %60 = getelementptr inbounds nuw i8, ptr %0, i64 196
  store i32 %39, ptr %60, align 4, !tbaa !51
  %61 = getelementptr inbounds nuw i8, ptr %0, i64 200
  store i32 %2, ptr %61, align 4, !tbaa !52
  %62 = getelementptr inbounds nuw i8, ptr %47, i64 60
  %63 = load i32, ptr %62, align 4, !tbaa !43
  %64 = and i32 %63, 32768
  %.not41.i = icmp eq i32 %64, 0
  br i1 %.not41.i, label %65, label %69

65:                                               ; preds = %45
  %66 = load ptr, ptr %54, align 8, !tbaa !27
  %67 = icmp ult ptr %48, %66
  br i1 %67, label %68, label %69

68:                                               ; preds = %65
  store ptr %66, ptr %9, align 8, !tbaa !27
  %.pre42.i = ptrtoint ptr %66 to i64
  br label %69

69:                                               ; preds = %68, %65, %45
  %.pre-phi.i = phi i64 [ %.pre42.i, %68 ], [ %51, %65 ], [ %51, %45 ]
  %70 = phi ptr [ %66, %68 ], [ %48, %65 ], [ %48, %45 ]
  %71 = getelementptr inbounds nuw i8, ptr %0, i64 40
  %72 = load ptr, ptr %71, align 8, !tbaa !27
  %73 = ptrtoint ptr %72 to i64
  %74 = sub i64 %73, %.pre-phi.i
  %75 = icmp slt i64 %74, 336
  br i1 %75, label %76, label %78, !prof !42

76:                                               ; preds = %69
  %77 = tail call i32 @luaD_growstack(ptr noundef nonnull %0, i32 noundef 20, i32 noundef 1)
  %.pre.i = load ptr, ptr %9, align 8, !tbaa !27
  br label %78

78:                                               ; preds = %76, %69
  %79 = phi ptr [ %70, %69 ], [ %.pre.i, %76 ]
  %80 = load ptr, ptr %54, align 8, !tbaa !27
  %81 = getelementptr inbounds nuw i8, ptr %79, i64 320
  %82 = icmp ult ptr %80, %81
  br i1 %82, label %83, label %84

83:                                               ; preds = %78
  store ptr %81, ptr %54, align 8, !tbaa !27
  br label %84

84:                                               ; preds = %83, %78
  store i8 0, ptr %43, align 1, !tbaa !45
  %85 = load i32, ptr %62, align 4, !tbaa !43
  %86 = or i32 %85, 1048576
  store i32 %86, ptr %62, align 4, !tbaa !43
  call void %41(ptr noundef nonnull %0, ptr noundef nonnull %4) #13
  store i8 1, ptr %43, align 1, !tbaa !45
  %87 = load ptr, ptr %49, align 8, !tbaa !27
  %88 = getelementptr inbounds i8, ptr %87, i64 %57
  store ptr %88, ptr %54, align 8, !tbaa !27
  %89 = load ptr, ptr %49, align 8, !tbaa !27
  %90 = getelementptr inbounds i8, ptr %89, i64 %53
  store ptr %90, ptr %9, align 8, !tbaa !27
  %91 = load i32, ptr %62, align 4, !tbaa !43
  %92 = and i32 %91, -1048577
  store i32 %92, ptr %62, align 4, !tbaa !43
  call void @llvm.lifetime.end.p0(i64 144, ptr nonnull %4) #13
  %.pre23 = load ptr, ptr %1, align 8, !tbaa !27
  br label %luaD_hook.exit

luaD_hook.exit:                                   ; preds = %33, %42, %84
  %93 = phi ptr [ %34, %33 ], [ %34, %42 ], [ %.pre23, %84 ]
  %94 = sub nsw i64 0, %.0
  %95 = getelementptr inbounds %union.StackValue, ptr %93, i64 %94
  store ptr %95, ptr %1, align 8, !tbaa !27
  br label %96

96:                                               ; preds = %luaD_hook.exit, %3
  %97 = getelementptr inbounds nuw i8, ptr %1, i64 16
  %98 = load ptr, ptr %97, align 8, !tbaa !67
  %99 = getelementptr inbounds nuw i8, ptr %98, i64 60
  %100 = load i32, ptr %99, align 4, !tbaa !43
  %101 = and i32 %100, 32768
  %.not22 = icmp eq i32 %101, 0
  br i1 %.not22, label %102, label %118

102:                                              ; preds = %96
  %103 = getelementptr inbounds nuw i8, ptr %98, i64 32
  %104 = load ptr, ptr %103, align 8, !tbaa !27
  %105 = load ptr, ptr %98, align 8, !tbaa !27
  %106 = load ptr, ptr %105, align 8, !tbaa !27
  %107 = getelementptr inbounds nuw i8, ptr %106, i64 24
  %108 = load ptr, ptr %107, align 8, !tbaa !55
  %109 = getelementptr inbounds nuw i8, ptr %108, i64 64
  %110 = load ptr, ptr %109, align 8, !tbaa !69
  %111 = ptrtoint ptr %104 to i64
  %112 = ptrtoint ptr %110 to i64
  %113 = sub i64 %111, %112
  %114 = lshr exact i64 %113, 2
  %115 = trunc i64 %114 to i32
  %116 = add nsw i32 %115, -1
  %117 = getelementptr inbounds nuw i8, ptr %0, i64 180
  store i32 %116, ptr %117, align 4, !tbaa !53
  br label %118

118:                                              ; preds = %102, %96
  ret void
}